	.cpu cortex-m4
	.arch armv7e-m
	.fpu fpv4-sp-d16
	.eabi_attribute 27, 1
	.eabi_attribute 28, 1
	.eabi_attribute 20, 1
	.eabi_attribute 21, 1
	.eabi_attribute 23, 3
	.eabi_attribute 24, 1
	.eabi_attribute 25, 1
	.eabi_attribute 26, 1
	.eabi_attribute 30, 6
	.eabi_attribute 34, 1
	.eabi_attribute 38, 1
	.eabi_attribute 18, 4
	.file	"nrf_ble_gatt.c"
	.text
.Ltext0:
	.section	.text.sd_mbr_command,"ax",%progbits
	.align	1
	.syntax unified
	.thumb
	.thumb_func
	.type	sd_mbr_command, %function
sd_mbr_command:
.LFB144:
	.file 1 "../../../../../../components/softdevice/s132/headers/nrf52/nrf_mbr.h"
	.loc 1 257 1
	@ Naked Function: prologue and epilogue provided by programmer.
	@ args = 0, pretend = 0, frame = 0
	@ frame_needed = 0, uses_anonymous_args = 0
	.loc 1 257 1
	.syntax unified
@ 257 "../../../../../../components/softdevice/s132/headers/nrf52/nrf_mbr.h" 1
	svc #24
bx r14
@ 0 "" 2
	.thumb
	.syntax unified
	nop
	mov	r0, r3
.LFE144:
	.size	sd_mbr_command, .-sd_mbr_command
	.section	.text.sd_ble_gap_addr_set,"ax",%progbits
	.align	1
	.syntax unified
	.thumb
	.thumb_func
	.type	sd_ble_gap_addr_set, %function
sd_ble_gap_addr_set:
.LFB163:
	.file 2 "../../../../../../components/softdevice/s132/headers/ble_gap.h"
	.loc 2 1700 1
	@ Naked Function: prologue and epilogue provided by programmer.
	@ args = 0, pretend = 0, frame = 0
	@ frame_needed = 0, uses_anonymous_args = 0
	.loc 2 1700 1
	.syntax unified
@ 1700 "../../../../../../components/softdevice/s132/headers/ble_gap.h" 1
	svc #108
bx r14
@ 0 "" 2
	.thumb
	.syntax unified
	nop
	mov	r0, r3
.LFE163:
	.size	sd_ble_gap_addr_set, .-sd_ble_gap_addr_set
	.section	.text.sd_ble_gap_addr_get,"ax",%progbits
	.align	1
	.syntax unified
	.thumb
	.thumb_func
	.type	sd_ble_gap_addr_get, %function
sd_ble_gap_addr_get:
.LFB164:
	.loc 2 1713 1
	@ Naked Function: prologue and epilogue provided by programmer.
	@ args = 0, pretend = 0, frame = 0
	@ frame_needed = 0, uses_anonymous_args = 0
	.loc 2 1713 1
	.syntax unified
@ 1713 "../../../../../../components/softdevice/s132/headers/ble_gap.h" 1
	svc #109
bx r14
@ 0 "" 2
	.thumb
	.syntax unified
	nop
	mov	r0, r3
.LFE164:
	.size	sd_ble_gap_addr_get, .-sd_ble_gap_addr_get
	.section	.text.sd_ble_gap_adv_addr_get,"ax",%progbits
	.align	1
	.syntax unified
	.thumb
	.thumb_func
	.type	sd_ble_gap_adv_addr_get, %function
sd_ble_gap_adv_addr_get:
.LFB165:
	.loc 2 1732 1
	@ Naked Function: prologue and epilogue provided by programmer.
	@ args = 0, pretend = 0, frame = 0
	@ frame_needed = 0, uses_anonymous_args = 0
	.loc 2 1732 1
	.syntax unified
@ 1732 "../../../../../../components/softdevice/s132/headers/ble_gap.h" 1
	svc #147
bx r14
@ 0 "" 2
	.thumb
	.syntax unified
	nop
	mov	r0, r3
.LFE165:
	.size	sd_ble_gap_adv_addr_get, .-sd_ble_gap_adv_addr_get
	.section	.text.sd_ble_gap_whitelist_set,"ax",%progbits
	.align	1
	.syntax unified
	.thumb
	.thumb_func
	.type	sd_ble_gap_whitelist_set, %function
sd_ble_gap_whitelist_set:
.LFB166:
	.loc 2 1758 1
	@ Naked Function: prologue and epilogue provided by programmer.
	@ args = 0, pretend = 0, frame = 0
	@ frame_needed = 0, uses_anonymous_args = 0
	.loc 2 1758 1
	.syntax unified
@ 1758 "../../../../../../components/softdevice/s132/headers/ble_gap.h" 1
	svc #110
bx r14
@ 0 "" 2
	.thumb
	.syntax unified
	nop
	mov	r0, r3
.LFE166:
	.size	sd_ble_gap_whitelist_set, .-sd_ble_gap_whitelist_set
	.section	.text.sd_ble_gap_device_identities_set,"ax",%progbits
	.align	1
	.syntax unified
	.thumb
	.thumb_func
	.type	sd_ble_gap_device_identities_set, %function
sd_ble_gap_device_identities_set:
.LFB167:
	.loc 2 1789 1
	@ Naked Function: prologue and epilogue provided by programmer.
	@ args = 0, pretend = 0, frame = 0
	@ frame_needed = 0, uses_anonymous_args = 0
	.loc 2 1789 1
	.syntax unified
@ 1789 "../../../../../../components/softdevice/s132/headers/ble_gap.h" 1
	svc #111
bx r14
@ 0 "" 2
	.thumb
	.syntax unified
	nop
	mov	r0, r3
.LFE167:
	.size	sd_ble_gap_device_identities_set, .-sd_ble_gap_device_identities_set
	.section	.text.sd_ble_gap_privacy_set,"ax",%progbits
	.align	1
	.syntax unified
	.thumb
	.thumb_func
	.type	sd_ble_gap_privacy_set, %function
sd_ble_gap_privacy_set:
.LFB168:
	.loc 2 1817 1
	@ Naked Function: prologue and epilogue provided by programmer.
	@ args = 0, pretend = 0, frame = 0
	@ frame_needed = 0, uses_anonymous_args = 0
	.loc 2 1817 1
	.syntax unified
@ 1817 "../../../../../../components/softdevice/s132/headers/ble_gap.h" 1
	svc #112
bx r14
@ 0 "" 2
	.thumb
	.syntax unified
	nop
	mov	r0, r3
.LFE168:
	.size	sd_ble_gap_privacy_set, .-sd_ble_gap_privacy_set
	.section	.text.sd_ble_gap_privacy_get,"ax",%progbits
	.align	1
	.syntax unified
	.thumb
	.thumb_func
	.type	sd_ble_gap_privacy_get, %function
sd_ble_gap_privacy_get:
.LFB169:
	.loc 2 1831 1
	@ Naked Function: prologue and epilogue provided by programmer.
	@ args = 0, pretend = 0, frame = 0
	@ frame_needed = 0, uses_anonymous_args = 0
	.loc 2 1831 1
	.syntax unified
@ 1831 "../../../../../../components/softdevice/s132/headers/ble_gap.h" 1
	svc #113
bx r14
@ 0 "" 2
	.thumb
	.syntax unified
	nop
	mov	r0, r3
.LFE169:
	.size	sd_ble_gap_privacy_get, .-sd_ble_gap_privacy_get
	.section	.text.sd_ble_gap_adv_set_configure,"ax",%progbits
	.align	1
	.syntax unified
	.thumb
	.thumb_func
	.type	sd_ble_gap_adv_set_configure, %function
sd_ble_gap_adv_set_configure:
.LFB170:
	.loc 2 1878 1
	@ Naked Function: prologue and epilogue provided by programmer.
	@ args = 0, pretend = 0, frame = 0
	@ frame_needed = 0, uses_anonymous_args = 0
	.loc 2 1878 1
	.syntax unified
@ 1878 "../../../../../../components/softdevice/s132/headers/ble_gap.h" 1
	svc #114
bx r14
@ 0 "" 2
	.thumb
	.syntax unified
	nop
	mov	r0, r3
.LFE170:
	.size	sd_ble_gap_adv_set_configure, .-sd_ble_gap_adv_set_configure
	.section	.text.sd_ble_gap_adv_start,"ax",%progbits
	.align	1
	.syntax unified
	.thumb
	.thumb_func
	.type	sd_ble_gap_adv_start, %function
sd_ble_gap_adv_start:
.LFB171:
	.loc 2 1928 1
	@ Naked Function: prologue and epilogue provided by programmer.
	@ args = 0, pretend = 0, frame = 0
	@ frame_needed = 0, uses_anonymous_args = 0
	.loc 2 1928 1
	.syntax unified
@ 1928 "../../../../../../components/softdevice/s132/headers/ble_gap.h" 1
	svc #115
bx r14
@ 0 "" 2
	.thumb
	.syntax unified
	nop
	mov	r0, r3
.LFE171:
	.size	sd_ble_gap_adv_start, .-sd_ble_gap_adv_start
	.section	.text.sd_ble_gap_adv_stop,"ax",%progbits
	.align	1
	.syntax unified
	.thumb
	.thumb_func
	.type	sd_ble_gap_adv_stop, %function
sd_ble_gap_adv_stop:
.LFB172:
	.loc 2 1944 1
	@ Naked Function: prologue and epilogue provided by programmer.
	@ args = 0, pretend = 0, frame = 0
	@ frame_needed = 0, uses_anonymous_args = 0
	.loc 2 1944 1
	.syntax unified
@ 1944 "../../../../../../components/softdevice/s132/headers/ble_gap.h" 1
	svc #116
bx r14
@ 0 "" 2
	.thumb
	.syntax unified
	nop
	mov	r0, r3
.LFE172:
	.size	sd_ble_gap_adv_stop, .-sd_ble_gap_adv_stop
	.section	.text.sd_ble_gap_conn_param_update,"ax",%progbits
	.align	1
	.syntax unified
	.thumb
	.thumb_func
	.type	sd_ble_gap_conn_param_update, %function
sd_ble_gap_conn_param_update:
.LFB173:
	.loc 2 1982 1
	@ Naked Function: prologue and epilogue provided by programmer.
	@ args = 0, pretend = 0, frame = 0
	@ frame_needed = 0, uses_anonymous_args = 0
	.loc 2 1982 1
	.syntax unified
@ 1982 "../../../../../../components/softdevice/s132/headers/ble_gap.h" 1
	svc #117
bx r14
@ 0 "" 2
	.thumb
	.syntax unified
	nop
	mov	r0, r3
.LFE173:
	.size	sd_ble_gap_conn_param_update, .-sd_ble_gap_conn_param_update
	.section	.text.sd_ble_gap_disconnect,"ax",%progbits
	.align	1
	.syntax unified
	.thumb
	.thumb_func
	.type	sd_ble_gap_disconnect, %function
sd_ble_gap_disconnect:
.LFB174:
	.loc 2 2006 1
	@ Naked Function: prologue and epilogue provided by programmer.
	@ args = 0, pretend = 0, frame = 0
	@ frame_needed = 0, uses_anonymous_args = 0
	.loc 2 2006 1
	.syntax unified
@ 2006 "../../../../../../components/softdevice/s132/headers/ble_gap.h" 1
	svc #118
bx r14
@ 0 "" 2
	.thumb
	.syntax unified
	nop
	mov	r0, r3
.LFE174:
	.size	sd_ble_gap_disconnect, .-sd_ble_gap_disconnect
	.section	.text.sd_ble_gap_tx_power_set,"ax",%progbits
	.align	1
	.syntax unified
	.thumb
	.thumb_func
	.type	sd_ble_gap_tx_power_set, %function
sd_ble_gap_tx_power_set:
.LFB175:
	.loc 2 2031 1
	@ Naked Function: prologue and epilogue provided by programmer.
	@ args = 0, pretend = 0, frame = 0
	@ frame_needed = 0, uses_anonymous_args = 0
	.loc 2 2031 1
	.syntax unified
@ 2031 "../../../../../../components/softdevice/s132/headers/ble_gap.h" 1
	svc #119
bx r14
@ 0 "" 2
	.thumb
	.syntax unified
	nop
	mov	r0, r3
.LFE175:
	.size	sd_ble_gap_tx_power_set, .-sd_ble_gap_tx_power_set
	.section	.text.sd_ble_gap_appearance_set,"ax",%progbits
	.align	1
	.syntax unified
	.thumb
	.thumb_func
	.type	sd_ble_gap_appearance_set, %function
sd_ble_gap_appearance_set:
.LFB176:
	.loc 2 2041 1
	@ Naked Function: prologue and epilogue provided by programmer.
	@ args = 0, pretend = 0, frame = 0
	@ frame_needed = 0, uses_anonymous_args = 0
	.loc 2 2041 1
	.syntax unified
@ 2041 "../../../../../../components/softdevice/s132/headers/ble_gap.h" 1
	svc #120
bx r14
@ 0 "" 2
	.thumb
	.syntax unified
	nop
	mov	r0, r3
.LFE176:
	.size	sd_ble_gap_appearance_set, .-sd_ble_gap_appearance_set
	.section	.text.sd_ble_gap_appearance_get,"ax",%progbits
	.align	1
	.syntax unified
	.thumb
	.thumb_func
	.type	sd_ble_gap_appearance_get, %function
sd_ble_gap_appearance_get:
.LFB177:
	.loc 2 2051 1
	@ Naked Function: prologue and epilogue provided by programmer.
	@ args = 0, pretend = 0, frame = 0
	@ frame_needed = 0, uses_anonymous_args = 0
	.loc 2 2051 1
	.syntax unified
@ 2051 "../../../../../../components/softdevice/s132/headers/ble_gap.h" 1
	svc #121
bx r14
@ 0 "" 2
	.thumb
	.syntax unified
	nop
	mov	r0, r3
.LFE177:
	.size	sd_ble_gap_appearance_get, .-sd_ble_gap_appearance_get
	.section	.text.sd_ble_gap_ppcp_set,"ax",%progbits
	.align	1
	.syntax unified
	.thumb
	.thumb_func
	.type	sd_ble_gap_ppcp_set, %function
sd_ble_gap_ppcp_set:
.LFB178:
	.loc 2 2064 1
	@ Naked Function: prologue and epilogue provided by programmer.
	@ args = 0, pretend = 0, frame = 0
	@ frame_needed = 0, uses_anonymous_args = 0
	.loc 2 2064 1
	.syntax unified
@ 2064 "../../../../../../components/softdevice/s132/headers/ble_gap.h" 1
	svc #122
bx r14
@ 0 "" 2
	.thumb
	.syntax unified
	nop
	mov	r0, r3
.LFE178:
	.size	sd_ble_gap_ppcp_set, .-sd_ble_gap_ppcp_set
	.section	.text.sd_ble_gap_ppcp_get,"ax",%progbits
	.align	1
	.syntax unified
	.thumb
	.thumb_func
	.type	sd_ble_gap_ppcp_get, %function
sd_ble_gap_ppcp_get:
.LFB179:
	.loc 2 2076 1
	@ Naked Function: prologue and epilogue provided by programmer.
	@ args = 0, pretend = 0, frame = 0
	@ frame_needed = 0, uses_anonymous_args = 0
	.loc 2 2076 1
	.syntax unified
@ 2076 "../../../../../../components/softdevice/s132/headers/ble_gap.h" 1
	svc #123
bx r14
@ 0 "" 2
	.thumb
	.syntax unified
	nop
	mov	r0, r3
.LFE179:
	.size	sd_ble_gap_ppcp_get, .-sd_ble_gap_ppcp_get
	.section	.text.sd_ble_gap_device_name_set,"ax",%progbits
	.align	1
	.syntax unified
	.thumb
	.thumb_func
	.type	sd_ble_gap_device_name_set, %function
sd_ble_gap_device_name_set:
.LFB180:
	.loc 2 2094 1
	@ Naked Function: prologue and epilogue provided by programmer.
	@ args = 0, pretend = 0, frame = 0
	@ frame_needed = 0, uses_anonymous_args = 0
	.loc 2 2094 1
	.syntax unified
@ 2094 "../../../../../../components/softdevice/s132/headers/ble_gap.h" 1
	svc #124
bx r14
@ 0 "" 2
	.thumb
	.syntax unified
	nop
	mov	r0, r3
.LFE180:
	.size	sd_ble_gap_device_name_set, .-sd_ble_gap_device_name_set
	.section	.text.sd_ble_gap_device_name_get,"ax",%progbits
	.align	1
	.syntax unified
	.thumb
	.thumb_func
	.type	sd_ble_gap_device_name_get, %function
sd_ble_gap_device_name_get:
.LFB181:
	.loc 2 2111 1
	@ Naked Function: prologue and epilogue provided by programmer.
	@ args = 0, pretend = 0, frame = 0
	@ frame_needed = 0, uses_anonymous_args = 0
	.loc 2 2111 1
	.syntax unified
@ 2111 "../../../../../../components/softdevice/s132/headers/ble_gap.h" 1
	svc #125
bx r14
@ 0 "" 2
	.thumb
	.syntax unified
	nop
	mov	r0, r3
.LFE181:
	.size	sd_ble_gap_device_name_get, .-sd_ble_gap_device_name_get
	.section	.text.sd_ble_gap_authenticate,"ax",%progbits
	.align	1
	.syntax unified
	.thumb
	.thumb_func
	.type	sd_ble_gap_authenticate, %function
sd_ble_gap_authenticate:
.LFB182:
	.loc 2 2167 1
	@ Naked Function: prologue and epilogue provided by programmer.
	@ args = 0, pretend = 0, frame = 0
	@ frame_needed = 0, uses_anonymous_args = 0
	.loc 2 2167 1
	.syntax unified
@ 2167 "../../../../../../components/softdevice/s132/headers/ble_gap.h" 1
	svc #126
bx r14
@ 0 "" 2
	.thumb
	.syntax unified
	nop
	mov	r0, r3
.LFE182:
	.size	sd_ble_gap_authenticate, .-sd_ble_gap_authenticate
	.section	.text.sd_ble_gap_sec_params_reply,"ax",%progbits
	.align	1
	.syntax unified
	.thumb
	.thumb_func
	.type	sd_ble_gap_sec_params_reply, %function
sd_ble_gap_sec_params_reply:
.LFB183:
	.loc 2 2230 1
	@ Naked Function: prologue and epilogue provided by programmer.
	@ args = 0, pretend = 0, frame = 0
	@ frame_needed = 0, uses_anonymous_args = 0
	.loc 2 2230 1
	.syntax unified
@ 2230 "../../../../../../components/softdevice/s132/headers/ble_gap.h" 1
	svc #127
bx r14
@ 0 "" 2
	.thumb
	.syntax unified
	nop
	mov	r0, r3
.LFE183:
	.size	sd_ble_gap_sec_params_reply, .-sd_ble_gap_sec_params_reply
	.section	.text.sd_ble_gap_auth_key_reply,"ax",%progbits
	.align	1
	.syntax unified
	.thumb
	.thumb_func
	.type	sd_ble_gap_auth_key_reply, %function
sd_ble_gap_auth_key_reply:
.LFB184:
	.loc 2 2264 1
	@ Naked Function: prologue and epilogue provided by programmer.
	@ args = 0, pretend = 0, frame = 0
	@ frame_needed = 0, uses_anonymous_args = 0
	.loc 2 2264 1
	.syntax unified
@ 2264 "../../../../../../components/softdevice/s132/headers/ble_gap.h" 1
	svc #128
bx r14
@ 0 "" 2
	.thumb
	.syntax unified
	nop
	mov	r0, r3
.LFE184:
	.size	sd_ble_gap_auth_key_reply, .-sd_ble_gap_auth_key_reply
	.section	.text.sd_ble_gap_lesc_dhkey_reply,"ax",%progbits
	.align	1
	.syntax unified
	.thumb
	.thumb_func
	.type	sd_ble_gap_lesc_dhkey_reply, %function
sd_ble_gap_lesc_dhkey_reply:
.LFB185:
	.loc 2 2300 1
	@ Naked Function: prologue and epilogue provided by programmer.
	@ args = 0, pretend = 0, frame = 0
	@ frame_needed = 0, uses_anonymous_args = 0
	.loc 2 2300 1
	.syntax unified
@ 2300 "../../../../../../components/softdevice/s132/headers/ble_gap.h" 1
	svc #129
bx r14
@ 0 "" 2
	.thumb
	.syntax unified
	nop
	mov	r0, r3
.LFE185:
	.size	sd_ble_gap_lesc_dhkey_reply, .-sd_ble_gap_lesc_dhkey_reply
	.section	.text.sd_ble_gap_keypress_notify,"ax",%progbits
	.align	1
	.syntax unified
	.thumb
	.thumb_func
	.type	sd_ble_gap_keypress_notify, %function
sd_ble_gap_keypress_notify:
.LFB186:
	.loc 2 2322 1
	@ Naked Function: prologue and epilogue provided by programmer.
	@ args = 0, pretend = 0, frame = 0
	@ frame_needed = 0, uses_anonymous_args = 0
	.loc 2 2322 1
	.syntax unified
@ 2322 "../../../../../../components/softdevice/s132/headers/ble_gap.h" 1
	svc #130
bx r14
@ 0 "" 2
	.thumb
	.syntax unified
	nop
	mov	r0, r3
.LFE186:
	.size	sd_ble_gap_keypress_notify, .-sd_ble_gap_keypress_notify
	.section	.text.sd_ble_gap_lesc_oob_data_get,"ax",%progbits
	.align	1
	.syntax unified
	.thumb
	.thumb_func
	.type	sd_ble_gap_lesc_oob_data_get, %function
sd_ble_gap_lesc_oob_data_get:
.LFB187:
	.loc 2 2343 1
	@ Naked Function: prologue and epilogue provided by programmer.
	@ args = 0, pretend = 0, frame = 0
	@ frame_needed = 0, uses_anonymous_args = 0
	.loc 2 2343 1
	.syntax unified
@ 2343 "../../../../../../components/softdevice/s132/headers/ble_gap.h" 1
	svc #131
bx r14
@ 0 "" 2
	.thumb
	.syntax unified
	nop
	mov	r0, r3
.LFE187:
	.size	sd_ble_gap_lesc_oob_data_get, .-sd_ble_gap_lesc_oob_data_get
	.section	.text.sd_ble_gap_lesc_oob_data_set,"ax",%progbits
	.align	1
	.syntax unified
	.thumb
	.thumb_func
	.type	sd_ble_gap_lesc_oob_data_set, %function
sd_ble_gap_lesc_oob_data_set:
.LFB188:
	.loc 2 2375 1
	@ Naked Function: prologue and epilogue provided by programmer.
	@ args = 0, pretend = 0, frame = 0
	@ frame_needed = 0, uses_anonymous_args = 0
	.loc 2 2375 1
	.syntax unified
@ 2375 "../../../../../../components/softdevice/s132/headers/ble_gap.h" 1
	svc #132
bx r14
@ 0 "" 2
	.thumb
	.syntax unified
	nop
	mov	r0, r3
.LFE188:
	.size	sd_ble_gap_lesc_oob_data_set, .-sd_ble_gap_lesc_oob_data_set
	.section	.text.sd_ble_gap_encrypt,"ax",%progbits
	.align	1
	.syntax unified
	.thumb
	.thu